Certificate:
    Data:
        Version: 3 (0x2)
        Serial Number: 823 (0x337)
        Signature Algorithm: sha256WithRSAEncryption
        Issuer: C=IT, O=IGI, CN=Test CA
        Validity
            Not Before: Sep  1 16:27:04 2021 GMT
            Not After : Aug 30 16:27:04 2031 GMT
        Subject: C=IT, O=IGI, CN=voms.local.io
        Subject Public Key Info:
            Public Key Algorithm: rsaEncryption
                RSA Public-Key: (2048 bit)
                Modulus:
                    00:ca:97:f2:1a:a6:cf:c1:0f:98:13:1e:49:35:48:
                    ef:f8:76:ce:97:03:d4:ba:d7:fa:8d:1e:fa:0b:b7:
                    31:05:6f:8e:91:4a:8d:25:27:68:c9:f8:5f:8b:c4:
                    89:d6:9f:7b:ff:d9:9c:fc:b7:e5:91:80:d8:98:93:
                    81:f8:08:c4:9c:e1:3b:41:cd:99:f6:49:d6:9e:c3:
                    ef:46:0a:81:75:c3:be:e9:a8:8a:bb:6e:71:07:d0:
                    65:09:56:dd:94:f3:ea:d6:6b:78:38:9e:1d:25:85:
                    6f:12:45:df:14:10:56:ee:d2:7d:0b:66:04:8a:fb:
                    44:8f:22:85:80:04:9a:85:e9:2e:fe:5e:eb:5c:fd:
                    8f:41:99:19:59:7d:61:e5:80:60:3d:83:8d:1d:c4:
                    5d:ac:92:e7:65:04:67:f4:22:6e:28:e6:fb:bd:71:
                    6f:cd:96:c6:d5:72:50:70:fe:66:8a:3e:66:9f:fc:
                    dd:c4:5c:70:be:53:72:eb:aa:3e:46:5c:2c:67:81:
                    df:19:ab:ee:70:77:62:40:7a:11:fa:01:65:af:56:
                    0d:b9:b8:8b:c9:6d:60:2b:69:f4:e2:20:15:b2:2c:
                    a2:cd:03:df:a6:02:44:1d:e8:62:c4:ac:9d:6b:c0:
                    f8:7a:ed:c0:ff:19:06:a3:df:96:bf:41:08:48:f9:
                    04:cd
                Exponent: 65537 (0x10001)
        X509v3 extensions:
            X509v3 Basic Constraints: critical
                CA:FALSE
            X509v3 Subject Key Identifier: 
                96:63:F3:97:57:9C:6F:BF:D0:01:7D:33:83:18:5A:39:2C:38:39:27
            X509v3 Key Usage: critical
                Digital Signature, Non Repudiation, Key Encipherment
            X509v3 Extended Key Usage: 
                TLS Web Server Authentication, TLS Web Client Authentication, Microsoft Server Gated Crypto, Netscape Server Gated Crypto, E-mail Protection
            X509v3 Authority Key Identifier: 
                keyid:91:77:36:7B:2E:B4:69:F3:27:EA:B7:F6:08:8B:4A:23:A2:11:49:C6

            X509v3 Subject Alternative Name: 
                DNS:voms.local.io
    Signature Algorithm: sha256WithRSAEncryption
         b1:8a:c5:f2:00:05:16:f0:21:d7:a5:01:6c:21:b2:19:a2:2a:
         61:e9:30:a7:c6:60:f2:6f:c2:24:f0:91:ff:cb:1b:fd:34:b4:
         92:fd:54:38:b5:42:f0:c6:e4:4d:6e:13:55:47:1a:11:38:22:
         45:cf:90:0d:4c:df:92:f2:e5:65:cd:51:27:a3:af:bc:7f:06:
         18:32:3f:40:a0:91:b3:07:76:fd:94:e1:b0:50:8d:29:d1:16:
         84:a8:bd:3b:b8:e7:3d:68:85:ea:8b:89:51:7d:cd:c5:76:0a:
         72:56:8d:aa:38:d4:83:d5:cb:5b:ed:02:a4:95:9e:b7:65:79:
         3f:20:8c:9d:9d:52:9d:99:c7:19:f6:57:e5:fa:73:c9:29:32:
         da:2c:53:f9:c9:df:ba:5c:8d:d1:e6:1b:d0:e8:1d:57:aa:27:
         a4:ae:90:31:e8:73:4d:79:55:70:bd:e1:81:5e:dd:1c:8f:81:
         4e:36:fd:ea:0c:b6:35:dc:a0:01:ad:3e:41:e6:c4:7f:02:17:
         18:81:58:5f:e4:40:dd:09:3e:0f:03:3a:e0:6d:35:30:cb:fc:
         e1:12:4f:70:14:15:71:3e:ae:4b:11:8c:6b:f4:a0:67:f2:d5:
         16:54:a6:c8:62:81:95:af:92:fa:53:87:04:6c:16:0b:e4:e5:
         9f:8d:09:be
-----BEGIN CERTIFICATE-----
MIIDmDCCAoCgAwIBAgICAzcwDQYJKoZIhvcNAQELBQAwLTELMAkGA1UEBhMCSVQx
DDAKBgNVBAoMA0lHSTEQMA4GA1UEAwwHVGVzdCBDQTAeFw0yMTA5MDExNjI3MDRa
Fw0zMTA4MzAxNjI3MDRaMDMxCzAJBgNVBAYTAklUMQwwCgYDVQQKDANJR0kxFjAU
BgNVBAMMDXZvbXMubG9jYWwuaW8wggEiMA0GCSqGSIb3DQEBAQUAA4IBDwAwggEK
AoIBAQDKl/Iaps/BD5gTHkk1SO/4ds6XA9S61/qNHvoLtzEFb46RSo0lJ2jJ+F+L
xInWn3v/2Zz8t+WRgNiYk4H4CMSc4TtBzZn2Sdaew+9GCoF1w77pqIq7bnEH0GUJ
Vt2U8+rWa3g4nh0lhW8SRd8UEFbu0n0LZgSK+0SPIoWABJqF6S7+Xutc/Y9BmRlZ
fWHlgGA9g40dxF2skudlBGf0Im4o5vu9cW/NlsbVclBw/maKPmaf/N3EXHC+U3Lr
qj5GXCxngd8Zq+5wd2JAehH6AWWvVg25uIvJbWArafTiIBWyLKLNA9+mAkQd6GLE
rJ1rwPh67cD/GQaj35a/QQhI+QTNAgMBAAGjgbswgbgwDAYDVR0TAQH/BAIwADAd
BgNVHQ4EFgQUlmPzl1ecb7/QAX0zgxhaOSw4OScwDgYDVR0PAQH/BAQDAgXgMD4G
A1UdJQQ3MDUGCCsGAQUFBwMBBggrBgEFBQcDAgYKKwYBBAGCNwoDAwYJYIZIAYb4
QgQBBggrBgEFBQcDBDAfBgNVHSMEGDAWgBSRdzZ7LrRp8yfqt/YIi0ojohFJxjAY
BgNVHREEETAPgg12b21zLmxvY2FsLmlvMA0GCSqGSIb3DQEBCwUAA4IBAQCxisXy
AAUW8CHXpQFsIbIZoiph6TCnxmDyb8Ik8JH/yxv9NLSS/VQ4tULwxuRNbhNVRxoR
OCJFz5ANTN+S8uVlzVEno6+8fwYYMj9AoJGzB3b9lOGwUI0p0RaEqL07uOc9aIXq
i4lRfc3FdgpyVo2qONSD1ctb7QKklZ63ZXk/IIydnVKdmccZ9lfl+nPJKTLaLFP5
yd+6XI3R5hvQ6B1XqiekrpAx6HNNeVVwveGBXt0cj4FONv3qDLY13KABrT5B5sR/
AhcYgVhf5EDdCT4PAzrgbTUwy/zhEk9wFBVxPq5LEYxr9KBn8tUWVKbIYoGVr5L6
U4cEbBYL5OWfjQm+
-----END CERTIFICATE-----
